target datalayout = "e-m:e-p270:32:32-p271:32:32-p272:64:64-i64:64-i128:128-f80:128-n8:16:32:64-S128"
target triple = "x86_64-pc-linux-gnu"

%struct.FLAC__StreamMetadata = type { i32, i32, i32, %union.anon }
%union.anon = type { %struct.FLAC__StreamMetadata_CueSheet }
%struct.FLAC__StreamMetadata_CueSheet = type { [129 x i8], i64, i32, i32, ptr }
%struct.FLAC__StreamMetadata_Picture = type { i32, ptr, ptr, i32, i32, i32, i32, i32, ptr }

; Function Attrs: alwaysinline nounwind
define internal ptr @memcpy.inline(ptr noalias nonnull %0, ptr noalias nonnull %1, i64 %2) #5 {
  %4 = alloca ptr, align 8
  %5 = alloca ptr, align 8
  %6 = alloca i64, align 8
  store ptr %0, ptr %4, align 8, !tbaa !27
  store ptr %1, ptr %5, align 8, !tbaa !27
  store i64 %2, ptr %6, align 8, !tbaa !28
  %7 = load ptr, ptr %4, align 8, !tbaa !27
  %8 = load ptr, ptr %5, align 8, !tbaa !27
  %9 = load i64, ptr %6, align 8, !tbaa !28
  %10 = load ptr, ptr %4, align 8, !tbaa !27
  %11 = call i64 @llvm.objectsize.i64.p0(ptr %10, i1 false, i1 true, i1 false)
  %12 = call ptr @__memcpy_chk(ptr noundef %7, ptr noundef %8, i64 noundef %9, i64 noundef %11) #12
  ret ptr %12
}

; Function Attrs: inlinehint nounwind sspstrong uwtable
define internal ptr @safe_malloc_(i64 noundef %0) #9 {
  %2 = alloca i64, align 8
  store i64 %0, ptr %2, align 8, !tbaa !28
  %3 = load i64, ptr %2, align 8, !tbaa !28
  %4 = icmp ne i64 %3, 0
  br i1 %4, label %8, label %5

5:                                                ; preds = %1
  %6 = load i64, ptr %2, align 8, !tbaa !28
  %7 = add i64 %6, 1
  store i64 %7, ptr %2, align 8, !tbaa !28
  br label %8

8:                                                ; preds = %5, %1
  %9 = load i64, ptr %2, align 8, !tbaa !28
  %10 = call noalias ptr @malloc(i64 noundef %9) #16
  ret ptr %10
}

; Function Attrs: nounwind sspstrong uwtable
define internal i32 @copy_bytes_(ptr noundef %0, ptr noundef %1, i32 noundef %2) #0 {
  %4 = alloca i32, align 4
  %5 = alloca ptr, align 8
  %6 = alloca ptr, align 8
  %7 = alloca i32, align 4
  %8 = alloca ptr, align 8
  %9 = alloca i32, align 4
  store ptr %0, ptr %5, align 8, !tbaa !17
  store ptr %1, ptr %6, align 8, !tbaa !14
  store i32 %2, ptr %7, align 4, !tbaa !3
  %10 = load i32, ptr %7, align 4, !tbaa !3
  %11 = icmp ugt i32 %10, 0
  br i1 %11, label %12, label %32

12:                                               ; preds = %3
  %13 = load ptr, ptr %6, align 8, !tbaa !14
  %14 = icmp ne ptr %13, null
  br i1 %14, label %15, label %32

15:                                               ; preds = %12
  call void @llvm.lifetime.start.p0(i64 8, ptr %8) #12
  %16 = load i32, ptr %7, align 4, !tbaa !3
  %17 = zext i32 %16 to i64
  %18 = call ptr @safe_malloc_(i64 noundef %17)
  store ptr %18, ptr %8, align 8, !tbaa !14
  %19 = icmp eq ptr %18, null
  br i1 %19, label %20, label %21

20:                                               ; preds = %15
  store i32 0, ptr %4, align 4
  store i32 1, ptr %9, align 4
  br label %29

21:                                               ; preds = %15
  %22 = load ptr, ptr %8, align 8, !tbaa !14
  %23 = load ptr, ptr %6, align 8, !tbaa !14
  %24 = load i32, ptr %7, align 4, !tbaa !3
  %25 = zext i32 %24 to i64
  %26 = call ptr @memcpy.inline(ptr noundef %22, ptr noundef %23, i64 noundef %25) #12
  %27 = load ptr, ptr %8, align 8, !tbaa !14
  %28 = load ptr, ptr %5, align 8, !tbaa !17
  store ptr %27, ptr %28, align 8, !tbaa !14
  store i32 0, ptr %9, align 4
  br label %29

29:                                               ; preds = %21, %20
  call void @llvm.lifetime.end.p0(i64 8, ptr %8) #12
  %30 = load i32, ptr %9, align 4
  switch i32 %30, label %37 [
    i32 0, label %31
    i32 1, label %35
  ]

31:                                               ; preds = %29
  br label %34

32:                                               ; preds = %12, %3
  %33 = load ptr, ptr %5, align 8, !tbaa !17
  store ptr null, ptr %33, align 8, !tbaa !14
  br label %34

34:                                               ; preds = %32, %31
  store i32 1, ptr %4, align 4
  br label %35

35:                                               ; preds = %34, %29
  %36 = load i32, ptr %4, align 4
  ret i32 %36

37:                                               ; preds = %29
  unreachable
}

; Function Attrs: nounwind sspstrong uwtable
define i32 @FLAC__metadata_object_picture_set_data(ptr noundef %0, ptr noundef %1, i32 noundef %2, i32 noundef %3) #0 {
  %5 = alloca i32, align 4
  %6 = alloca ptr, align 8
  %7 = alloca ptr, align 8
  %8 = alloca i32, align 4
  %9 = alloca i32, align 4
  %10 = alloca ptr, align 8
  %11 = alloca i32, align 4
  store ptr %0, ptr %6, align 8, !tbaa !7
  store ptr %1, ptr %7, align 8, !tbaa !14
  store i32 %2, ptr %8, align 4, !tbaa !3
  store i32 %3, ptr %9, align 4, !tbaa !3
  call void @llvm.lifetime.start.p0(i64 8, ptr %10) #12
  %12 = load ptr, ptr %6, align 8, !tbaa !7
  %13 = getelementptr inbounds nuw %struct.FLAC__StreamMetadata, ptr %12, i32 0, i32 3
  %14 = getelementptr inbounds nuw %struct.FLAC__StreamMetadata_Picture, ptr %13, i32 0, i32 8
  %15 = load ptr, ptr %14, align 8, !tbaa !16
  store ptr %15, ptr %10, align 8, !tbaa !14
  %16 = load i32, ptr %9, align 4, !tbaa !3
  %17 = icmp ne i32 %16, 0
  br i1 %17, label %18, label %28

18:                                               ; preds = %4
  %19 = load ptr, ptr %6, align 8, !tbaa !7
  %20 = getelementptr inbounds nuw %struct.FLAC__StreamMetadata, ptr %19, i32 0, i32 3
  %21 = getelementptr inbounds nuw %struct.FLAC__StreamMetadata_Picture, ptr %20, i32 0, i32 8
  %22 = load ptr, ptr %7, align 8, !tbaa !14
  %23 = load i32, ptr %8, align 4, !tbaa !3
  %24 = call i32 @copy_bytes_(ptr noundef %21, ptr noundef %22, i32 noundef %23)
  %25 = icmp ne i32 %24, 0
  br i1 %25, label %27, label %26

26:                                               ; preds = %18
  store i32 0, ptr %5, align 4
  store i32 1, ptr %11, align 4
  br label %52

27:                                               ; preds = %18
  br label %33

28:                                               ; preds = %4
  %29 = load ptr, ptr %7, align 8, !tbaa !14
  %30 = load ptr, ptr %6, align 8, !tbaa !7
  %31 = getelementptr inbounds nuw %struct.FLAC__StreamMetadata, ptr %30, i32 0, i32 3
  %32 = getelementptr inbounds nuw %struct.FLAC__StreamMetadata_Picture, ptr %31, i32 0, i32 8
  store ptr %29, ptr %32, align 8, !tbaa !16
  br label %33

33:                                               ; preds = %28, %27
  %34 = load ptr, ptr %10, align 8, !tbaa !14
  call void @free(ptr noundef %34) #12
  %35 = load ptr, ptr %6, align 8, !tbaa !7
  %36 = getelementptr inbounds nuw %struct.FLAC__StreamMetadata, ptr %35, i32 0, i32 3
  %37 = getelementptr inbounds nuw %struct.FLAC__StreamMetadata_Picture, ptr %36, i32 0, i32 7
  %38 = load i32, ptr %37, align 8, !tbaa !16
  %39 = load ptr, ptr %6, align 8, !tbaa !7
  %40 = getelementptr inbounds nuw %struct.FLAC__StreamMetadata, ptr %39, i32 0, i32 2
  %41 = load i32, ptr %40, align 8, !tbaa !13
  %42 = sub i32 %41, %38
  store i32 %42, ptr %40, align 8, !tbaa !13
  %43 = load i32, ptr %8, align 4, !tbaa !3
  %44 = load ptr, ptr %6, align 8, !tbaa !7
  %45 = getelementptr inbounds nuw %struct.FLAC__StreamMetadata, ptr %44, i32 0, i32 3
  %46 = getelementptr inbounds nuw %struct.FLAC__StreamMetadata_Picture, ptr %45, i32 0, i32 7
  store i32 %43, ptr %46, align 8, !tbaa !16
  %47 = load i32, ptr %8, align 4, !tbaa !3
  %48 = load ptr, ptr %6, align 8, !tbaa !7
  %49 = getelementptr inbounds nuw %struct.FLAC__StreamMetadata, ptr %48, i32 0, i32 2
  %50 = load i32, ptr %49, align 8, !tbaa !13
  %51 = add i32 %50, %47
  store i32 %51, ptr %49, align 8, !tbaa !13
  store i32 1, ptr %5, align 4
  store i32 1, ptr %11, align 4
  br label %52

52:                                               ; preds = %33, %26
  call void @llvm.lifetime.end.p0(i64 8, ptr %10) #12
  %53 = load i32, ptr %5, align 4
  ret i32 %53
}