; Function Attrs: nounwind sspstrong uwtable
define range(i32 0, 2) i32 @FLAC__metadata_object_picture_set_data(ptr noundef captures(none) %0, ptr noundef %1, i32 noundef %2, i32 noundef %3) local_unnamed_addr #0 {
  %5 = getelementptr inbounds nuw i8, ptr %0, i64 64
  %6 = load ptr, ptr %5, align 8, !tbaa !13
  %.not = icmp eq i32 %3, 0
  br i1 %.not, label %copy_bytes_.exit, label %7

7:                                                ; preds = %4
  %8 = icmp ne i32 %2, 0
  %9 = icmp ne ptr %1, null
  %or.cond.i = and i1 %9, %8
  br i1 %or.cond.i, label %10, label %copy_bytes_.exit

10:                                               ; preds = %7
  %11 = zext i32 %2 to i64
  %12 = tail call noalias noundef ptr @malloc(i64 noundef %11) #30
  %13 = icmp eq ptr %12, null
  br i1 %13, label %copy_bytes_.exit.thread, label %.thread.i

.thread.i:                                        ; preds = %10
  tail call void @llvm.memcpy.p0.p0.i64(ptr noundef nonnull align 1 %12, ptr noundef nonnull readonly align 1 %1, i64 noundef %11, i1 noundef false) #31
  br label %copy_bytes_.exit

copy_bytes_.exit:                                 ; preds = %4, %.thread.i, %7
  %storemerge = phi ptr [ %12, %.thread.i ], [ null, %7 ], [ %1, %4 ]
  store ptr %storemerge, ptr %5, align 8, !tbaa !13
  tail call void @free(ptr noundef %6) #31
  %14 = getelementptr inbounds nuw i8, ptr %0, i64 56
  %15 = load i32, ptr %14, align 8, !tbaa !13
  %16 = getelementptr inbounds nuw i8, ptr %0, i64 8
  %17 = load i32, ptr %16, align 8, !tbaa !8
  %18 = sub i32 %17, %15
  store i32 %2, ptr %14, align 8, !tbaa !13
  %19 = add i32 %18, %2
  store i32 %19, ptr %16, align 8, !tbaa !8
  br label %copy_bytes_.exit.thread

copy_bytes_.exit.thread:                          ; preds = %10, %copy_bytes_.exit
  %.0 = phi i32 [ 1, %copy_bytes_.exit ], [ 0, %10 ]
  ret i32 %.0
}